target datalayout = "e-m:e-p270:32:32-p271:32:32-p272:64:64-i64:64-i128:128-f80:128-n8:16:32:64-S128"
target triple = "x86_64-unknown-linux-gnu"

%"struct.node::AssertionInfo" = type { ptr, ptr, ptr }
%"class.node::crypto::NodeBIO" = type { %"class.node::MemoryRetainer", ptr, i64, i64, i64, i32, ptr, ptr }
%"class.node::MemoryRetainer" = type { ptr }

@_ZZN4node6crypto7NodeBIO7FromBIOEP6bio_stE4args = internal constant %"struct.node::AssertionInfo" { ptr @.str.35, ptr @.str.36, ptr @.str.37 }, align 8

; Function Attrs: mustprogress nounwind uwtable
define linkonce_odr dso_local noundef i32 @_ZN4node6crypto7NodeBIO10eof_returnEv(ptr noundef nonnull align 8 dereferenceable(64) %this) #4 comdat align 2 {
entry:
  %this.addr = alloca ptr, align 8
  store ptr %this, ptr %this.addr, align 8
  %this1 = load ptr, ptr %this.addr, align 8
  %eof_return_ = getelementptr inbounds %"class.node::crypto::NodeBIO", ptr %this1, i32 0, i32 5
  %0 = load i32, ptr %eof_return_, align 8
  ret i32 %0
}

; Function Attrs: mustprogress nounwind uwtable
define dso_local noundef ptr @_ZN4node6crypto7NodeBIO7FromBIOEP6bio_st(ptr noundef %bio) #4 align 2 {
entry:
  %bio.addr = alloca ptr, align 8
  store ptr %bio, ptr %bio.addr, align 8
  br label %do.body

do.body:                                          ; preds = %entry
  %0 = load ptr, ptr %bio.addr, align 8
  %call = call ptr @BIO_get_data(ptr noundef %0)
  %cmp = icmp ne ptr %call, null
  %lnot = xor i1 %cmp, true
  %lnot1 = xor i1 %lnot, true
  %lnot2 = xor i1 %lnot1, true
  br i1 %lnot2, label %if.then, label %if.end

if.then:                                          ; preds = %do.body
  br label %do.body3

do.body3:                                         ; preds = %if.then
  call void @_ZN4node6AssertERKNS_13AssertionInfoE(ptr noundef nonnull align 8 dereferenceable(24) @_ZZN4node6crypto7NodeBIO7FromBIOEP6bio_stE4args)
  call void @abort() #12
  unreachable

do.end:                                           ; No predecessors!
  br label %if.end

if.end:                                           ; preds = %do.end, %do.body
  br label %do.end4

do.end4:                                          ; preds = %if.end
  %1 = load ptr, ptr %bio.addr, align 8
  %call5 = call ptr @BIO_get_data(ptr noundef %1)
  ret ptr %call5
}

; Function Attrs: mustprogress nounwind uwtable
define dso_local noundef i32 @_ZN4node6crypto7NodeBIO4ReadEP6bio_stPci(ptr noundef %bio, ptr noundef %out, i32 noundef %len) #4 align 2 {
entry:
  %bio.addr = alloca ptr, align 8
  %out.addr = alloca ptr, align 8
  %len.addr = alloca i32, align 4
  %nbio = alloca ptr, align 8
  %bytes = alloca i32, align 4
  store ptr %bio, ptr %bio.addr, align 8
  store ptr %out, ptr %out.addr, align 8
  store i32 %len, ptr %len.addr, align 4
  %0 = load ptr, ptr %bio.addr, align 8
  call void @BIO_clear_flags(ptr noundef %0, i32 noundef 15)
  %1 = load ptr, ptr %bio.addr, align 8
  %call = call noundef ptr @_ZN4node6crypto7NodeBIO7FromBIOEP6bio_st(ptr noundef %1)
  store ptr %call, ptr %nbio, align 8
  %2 = load ptr, ptr %nbio, align 8
  %3 = load ptr, ptr %out.addr, align 8
  %4 = load i32, ptr %len.addr, align 4
  %conv = sext i32 %4 to i64
  %call1 = call noundef i64 @_ZN4node6crypto7NodeBIO4ReadEPcm(ptr noundef nonnull align 8 dereferenceable(64) %2, ptr noundef %3, i64 noundef %conv)
  %conv2 = trunc i64 %call1 to i32
  store i32 %conv2, ptr %bytes, align 4
  %5 = load i32, ptr %bytes, align 4
  %cmp = icmp eq i32 %5, 0
  br i1 %cmp, label %if.then, label %if.end6

if.then:                                          ; preds = %entry
  %6 = load ptr, ptr %nbio, align 8
  %call3 = call noundef i32 @_ZN4node6crypto7NodeBIO10eof_returnEv(ptr noundef nonnull align 8 dereferenceable(64) %6)
  store i32 %call3, ptr %bytes, align 4
  %7 = load i32, ptr %bytes, align 4
  %cmp4 = icmp ne i32 %7, 0
  br i1 %cmp4, label %if.then5, label %if.end

if.then5:                                         ; preds = %if.then
  %8 = load ptr, ptr %bio.addr, align 8
  call void @BIO_set_flags(ptr noundef %8, i32 noundef 9)
  br label %if.end

if.end:                                           ; preds = %if.then5, %if.then
  br label %if.end6

if.end6:                                          ; preds = %if.end, %entry
  %9 = load i32, ptr %bytes, align 4
  ret i32 %9
}