; Function Attrs: mustprogress nounwind uwtable
define dso_local noundef i32 @_ZN4node6crypto7NodeBIO4ReadEP6bio_stPci(ptr noundef %bio, ptr noundef %out, i32 noundef %len) #3 align 2 {
entry:
  tail call void @BIO_clear_flags(ptr noundef %bio, i32 noundef 15) #16
  %call.i = tail call ptr @BIO_get_data(ptr noundef %bio) #16
  %cmp.not.i = icmp eq ptr %call.i, null
  br i1 %cmp.not.i, label %do.body3.i, label %_ZN4node6crypto7NodeBIO7FromBIOEP6bio_st.exit

do.body3.i:                                       ; preds = %entry
  tail call void @_ZN4node6AssertERKNS_13AssertionInfoE(ptr noundef nonnull align 8 dereferenceable(24) @_ZZN4node6crypto7NodeBIO7FromBIOEP6bio_stE4args) #16
  tail call void @abort() #17
  unreachable

_ZN4node6crypto7NodeBIO7FromBIOEP6bio_st.exit:    ; preds = %entry
  %call5.i = tail call noundef ptr @BIO_get_data(ptr noundef %bio) #16
  %conv = sext i32 %len to i64
  %call1 = tail call noundef i64 @_ZN4node6crypto7NodeBIO4ReadEPcm(ptr noundef nonnull align 8 dereferenceable(64) %call5.i, ptr noundef %out, i64 noundef %conv)
  %conv2 = trunc i64 %call1 to i32
  %cmp = icmp eq i32 %conv2, 0
  br i1 %cmp, label %if.then, label %if.end6

if.then:                                          ; preds = %_ZN4node6crypto7NodeBIO7FromBIOEP6bio_st.exit
  %eof_return_.i = getelementptr inbounds i8, ptr %call5.i, i64 40
  %0 = load i32, ptr %eof_return_.i, align 8
  %cmp4.not = icmp eq i32 %0, 0
  br i1 %cmp4.not, label %if.end6, label %if.then5

if.then5:                                         ; preds = %if.then
  tail call void @BIO_set_flags(ptr noundef %bio, i32 noundef 9) #16
  br label %if.end6

if.end6:                                          ; preds = %if.then, %if.then5, %_ZN4node6crypto7NodeBIO7FromBIOEP6bio_st.exit
  %bytes.0 = phi i32 [ %0, %if.then5 ], [ 0, %if.then ], [ %conv2, %_ZN4node6crypto7NodeBIO7FromBIOEP6bio_st.exit ]
  ret i32 %bytes.0
}